(dp0
S'METTS MARK'
p1
(dp2
S'to_messages'
p3
I807
sS'deferral_payments'
p4
I0
sS'expenses'
p5
I94299
sS'cost_to_company'
p6
I1646889
sS'poi'
p7
I00
sS'long_term_incentive'
p8
I0
sS'email_address'
p9
S'mark.metts@enron.com'
p10
sS'from_poi_to_this_person'
p11
I38
sS'deferred_income'
p12
I0
sS'restricted_stock_deferred'
p13
I0
sS'shared_receipt_with_poi'
p14
I702
sS'loan_advances'
p15
I0
sS'from_messages'
p16
I29
sS'other'
p17
I1740
sS'director_fees'
p18
I0
sS'bonus'
p19
I600000
sS'total_stock_value'
p20
I585062
sS'stock_to_payment_ratio'
p21
F0.55
sS'from_this_person_to_poi'
p22
I1
sS'email_pct_with_poi'
p23
F0.89
sS'restricted_stock'
p24
I585062
sS'salary'
p25
I365788
sS'total_payments'
p26
I1061827
sS'exercised_stock_options'
p27
I0
ssS'BAXTER JOHN C'
p28
(dp29
g3
I0
sg4
I1295738
sg5
I11200
sg6
I16257601
sg7
I00
sg8
I1586055
sg9
I0
sg11
I0
sg12
I-1386055
sg13
I0
sg14
I0
sg15
I0
sg16
I0
sg17
I2660303
sg18
I0
sg19
I1200000
sg20
I10623258
sg21
F1.89
sg22
I0
sg23
F0.0
sg24
I3942714
sg25
I267102
sg26
I5634343
sg27
I6680544
ssS'ELLIOTT STEVEN'
p30
(dp31
g3
I0
sg4
I0
sg5
I78552
sg6
I6890460
sg7
I00
sg8
I0
sg9
S'steven.elliott@enron.com'
p32
sg11
I0
sg12
I-400729
sg13
I0
sg14
I0
sg15
I0
sg16
I0
sg17
I12961
sg18
I0
sg19
I350000
sg20
I6678735
sg21
F31.54
sg22
I0
sg23
F0.0
sg24
I1788391
sg25
I170941
sg26
I211725
sg27
I4890344
ssS'CORDES WILLIAM R'
p33
(dp34
g3
I764
sg4
I0
sg5
I0
sg6
I1038185
sg7
I00
sg8
I0
sg9
S'bill.cordes@enron.com'
p35
sg11
I10
sg12
I0
sg13
I0
sg14
I58
sg15
I0
sg16
I12
sg17
I0
sg18
I0
sg19
I0
sg20
I1038185
sg21
F1038185.0
sg22
I0
sg23
F0.09
sg24
I386335
sg25
I0
sg26
I0
sg27
I651850
ssS'HANNON KEVIN P'
p36
(dp37
g3
I1045
sg4
I0
sg5
I34039
sg6
I6679747
sg7
I01
sg8
I1617011
sg9
S'kevin.hannon@enron.com'
p38
sg11
I32
sg12
I-3117011
sg13
I0
sg14
I1035
sg15
I0
sg16
I32
sg17
I11350
sg18
I0
sg19
I1500000
sg20
I6391065
sg21
F22.14
sg22
I21
sg23
F1.01
sg24
I853064
sg25
I243293
sg26
I288682
sg27
I5538001
ssS'MORDAUNT KRISTINA M'
p39
(dp40
g3
I0
sg4
I0
sg5
I35018
sg6
I837032
sg7
I00
sg8
I0
sg9
S'kristina.mordaunt@enron.com'
p41
sg11
I0
sg12
I0
sg13
I0
sg14
I0
sg15
I0
sg16
I0
sg17
I1411
sg18
I0
sg19
I325000
sg20
I208510
sg21
F0.33
sg22
I0
sg23
F0.0
sg24
I208510
sg25
I267093
sg26
I628522
sg27
I0
ssS'MEYER ROCKFORD G'
p42
(dp43
g3
I232
sg4
I1848227
sg5
I0
sg6
I2804100
sg7
I00
sg8
I0
sg9
S'rockford.meyer@enron.com'
p44
sg11
I0
sg12
I0
sg13
I0
sg14
I22
sg15
I0
sg16
I28
sg17
I0
sg18
I0
sg19
I0
sg20
I955873
sg21
F0.52
sg22
I0
sg23
F0.08
sg24
I462384
sg25
I0
sg26
I1848227
sg27
I493489
ssS'MCMAHON JEFFREY'
p45
(dp46
g3
I2355
sg4
I0
sg5
I137108
sg6
I5762626
sg7
I00
sg8
I694862
sg9
S'jeffrey.mcmahon@enron.com'
p47
sg11
I58
sg12
I0
sg13
I0
sg14
I2228
sg15
I0
sg16
I48
sg17
I297353
sg18
I0
sg19
I2600000
sg20
I1662855
sg21
F0.41
sg22
I26
sg23
F0.96
sg24
I558801
sg25
I370448
sg26
I4099771
sg27
I1104054
ssS'HORTON STANLEY C'
p48
(dp49
g3
I2350
sg4
I3131860
sg5
I0
sg6
I10388508
sg7
I00
sg8
I0
sg9
S'stanley.horton@enron.com'
p50
sg11
I44
sg12
I0
sg13
I0
sg14
I1074
sg15
I0
sg16
I1073
sg17
I0
sg18
I0
sg19
I0
sg20
I7256648
sg21
F2.32
sg22
I15
sg23
F0.33
sg24
I2046079
sg25
I0
sg26
I3131860
sg27
I5210569
ssS'PIPER GREGORY F'
p51
(dp52
g3
I1238
sg4
I1130036
sg5
I43057
sg6
I2617919
sg7
I00
sg8
I0
sg9
S'greg.piper@enron.com'
p53
sg11
I61
sg12
I-33333
sg13
I-409554
sg14
I742
sg15
I0
sg16
I222
sg17
I778
sg18
I0
sg19
I400000
sg20
I880290
sg21
F0.51
sg22
I48
sg23
F0.58
sg24
I409554
sg25
I197091
sg26
I1737629
sg27
I880290
ssS'HUMPHREY GENE E'
p54
(dp55
g3
I128
sg4
I2964506
sg5
I4994
sg6
I5382992
sg7
I00
sg8
I0
sg9
S'gene.humphrey@enron.com'
p56
sg11
I10
sg12
I0
sg13
I0
sg14
I119
sg15
I0
sg16
I17
sg17
I0
sg18
I0
sg19
I0
sg20
I2282768
sg21
F0.74
sg22
I17
sg23
F1.0
sg24
I0
sg25
I130724
sg26
I3100224
sg27
I2282768
ssS'UMANOFF ADAM S'
p57
(dp58
g3
I111
sg4
I0
sg5
I53122
sg6
I1130461
sg7
I00
sg8
I0
sg9
S'adam.umanoff@enron.com'
p59
sg11
I12
sg12
I0
sg13
I0
sg14
I41
sg15
I0
sg16
I18
sg17
I0
sg18
I0
sg19
I788750
sg20
I0
sg21
F0.0
sg22
I0
sg23
F0.41
sg24
I0
sg25
I288589
sg26
I1130461
sg27
I0
ssS'BLACHMAN JEREMY M'
p60
(dp61
g3
I2475
sg4
I0
sg5
I84208
sg6
I2969189
sg7
I00
sg8
I831809
sg9
S'jeremy.blachman@enron.com'
p62
sg11
I25
sg12
I0
sg13
I0
sg14
I2326
sg15
I0
sg16
I14
sg17
I272
sg18
I0
sg19
I850000
sg20
I954354
sg21
F0.47
sg22
I2
sg23
F0.94
sg24
I189041
sg25
I248546
sg26
I2014835
sg27
I765313
ssS'SUNDE MARTIN'
p63
(dp64
g3
I2647
sg4
I0
sg5
I0
sg6
I2243979
sg7
I00
sg8
I476451
sg9
S'marty.sunde@enron.com'
p65
sg11
I37
sg12
I0
sg13
I0
sg14
I2565
sg15
I0
sg16
I38
sg17
I111122
sg18
I0
sg19
I700000
sg20
I698920
sg21
F0.45
sg22
I13
sg23
F0.97
sg24
I698920
sg25
I257486
sg26
I1545059
sg27
I0
ssS'GIBBS DANA R'
p66
(dp67
g3
I169
sg4
I504610
sg5
I0
sg6
I3184797
sg7
I00
sg8
I461912
sg9
S'dana.gibbs@enron.com'
p68
sg11
I0
sg12
I0
sg13
I0
sg14
I23
sg15
I0
sg16
I12
sg17
I0
sg18
I0
sg19
I0
sg20
I2218275
sg21
F2.3
sg22
I0
sg23
F0.13
sg24
I0
sg25
I0
sg26
I966522
sg27
I2218275
ssS'LOWRY CHARLES P'
p69
(dp70
g3
I0
sg4
I0
sg5
I0
sg6
I372205
sg7
I00
sg8
I0
sg9
I0
sg11
I0
sg12
I0
sg13
I-153686
sg14
I0
sg15
I0
sg16
I0
sg17
I0
sg18
I0
sg19
I0
sg20
I372205
sg21
F372205.0
sg22
I0
sg23
F0.0
sg24
I153686
sg25
I0
sg26
I0
sg27
I372205
ssS'COLWELL WESLEY'
p71
(dp72
g3
I1758
sg4
I27610
sg5
I16514
sg6
I2188586
sg7
I01
sg8
I0
sg9
S'wes.colwell@enron.com'
p73
sg11
I240
sg12
I-144062
sg13
I0
sg14
I1132
sg15
I0
sg16
I40
sg17
I101740
sg18
I0
sg19
I1200000
sg20
I698242
sg21
F0.47
sg22
I11
sg23
F0.77
sg24
I698242
sg25
I288542
sg26
I1490344
sg27
I0
ssS'MULLER MARK S'
p74
(dp75
g3
I136
sg4
I842924
sg5
I0
sg6
I4618918
sg7
I00
sg8
I1725545
sg9
S's..muller@enron.com'
p76
sg11
I12
sg12
I-719000
sg13
I0
sg14
I114
sg15
I0
sg16
I16
sg17
I947
sg18
I0
sg19
I1100000
sg20
I1416848
sg21
F0.44
sg22
I0
sg23
F0.82
sg24
I360528
sg25
I251654
sg26
I3202070
sg27
I1056320
ssS'JACKSON CHARLENE R'
p77
(dp78
g3
I258
sg4
I0
sg5
I10181
sg6
I1276909
sg7
I00
sg8
I0
sg9
S'charlene.jackson@enron.com'
p79
sg11
I25
sg12
I0
sg13
I0
sg14
I117
sg15
I0
sg16
I56
sg17
I2435
sg18
I0
sg19
I250000
sg20
I725735
sg21
F1.32
sg22
I19
sg23
F0.51
sg24
I540672
sg25
I288558
sg26
I551174
sg27
I185063
ssS'WESTFAHL RICHARD K'
p80
(dp81
g3
I0
sg4
I0
sg5
I51870
sg6
I1147065
sg7
I00
sg8
I256191
sg9
S'dick.westfahl@enron.com'
p82
sg11
I0
sg12
I-10800
sg13
I0
sg14
I0
sg15
I0
sg16
I0
sg17
I401130
sg18
I0
sg19
I0
sg20
I384930
sg21
F0.51
sg22
I0
sg23
F0.0
sg24
I384930
sg25
I63744
sg26
I762135
sg27
I0
ssS'WALTERS GARETH W'
p83
(dp84
g3
I0
sg4
I53625
sg5
I33785
sg6
I1117739
sg7
I00
sg8
I0
sg9
I0
sg11
I0
sg12
I0
sg13
I0
sg14
I0
sg15
I0
sg16
I0
sg17
I0
sg18
I0
sg19
I0
sg20
I1030329
sg21
F11.79
sg22
I0
sg23
F0.0
sg24
I0
sg25
I0
sg26
I87410
sg27
I1030329
ssS'WALLS JR ROBERT H'
p85
(dp86
g3
I671
sg4
I0
sg5
I50936
sg6
I7697777
sg7
I00
sg8
I540751
sg9
S'rob.walls@enron.com'
p87
sg11
I17
sg12
I0
sg13
I0
sg14
I215
sg15
I0
sg16
I146
sg17
I2
sg18
I0
sg19
I850000
sg20
I5898997
sg21
F3.28
sg22
I0
sg23
F0.28
sg24
I1552453
sg25
I357091
sg26
I1798780
sg27
I4346544
ssS'KITCHEN LOUISE'
p88
(dp89
g3
I8305
sg4
I0
sg5
I5774
sg6
I4018284
sg7
I00
sg8
I0
sg9
S'louise.kitchen@enron.com'
p90
sg11
I251
sg12
I0
sg13
I0
sg14
I3669
sg15
I0
sg16
I1728
sg17
I93925
sg18
I0
sg19
I3100000
sg20
I547143
sg21
F0.16
sg22
I194
sg23
F0.41
sg24
I466101
sg25
I271442
sg26
I3471141
sg27
I81042
ssS'CHAN RONNIE'
p91
(dp92
g3
I0
sg4
I0
sg5
I0
sg6
I0
sg7
I00
sg8
I0
sg9
I0
sg11
I0
sg12
I-98784
sg13
I-32460
sg14
I0
sg15
I0
sg16
I0
sg17
I0
sg18
I98784
sg19
I0
sg20
I0
sg21
F0.0
sg22
I0
sg23
F0.0
sg24
I32460
sg25
I0
sg26
I0
sg27
I0
ssS'BELFER ROBERT'
p93
(dp94
g3
I0
sg4
I-102500
sg5
I0
sg6
I58407
sg7
I00
sg8
I0
sg9
I0
sg11
I0
sg12
I0
sg13
I44093
sg14
I0
sg15
I0
sg16
I0
sg17
I0
sg18
I3285
sg19
I0
sg20
I-44093
sg21
F-0.43
sg22
I0
sg23
F0.0
sg24
I0
sg25
I0
sg26
I102500
sg27
I3285
ssS'SHANKMAN JEFFREY A'
p95
(dp96
g3
I3221
sg4
I0
sg5
I178979
sg6
I5110737
sg7
I00
sg8
I554422
sg9
S'jeffrey.shankman@enron.com'
p97
sg11
I94
sg12
I0
sg13
I0
sg14
I1730
sg15
I0
sg16
I2681
sg17
I1191
sg18
I0
sg19
I2000000
sg20
I2072035
sg21
F0.68
sg22
I83
sg23
F0.32
sg24
I630137
sg25
I304110
sg26
I3038702
sg27
I1441898
ssS'WODRASKA JOHN'
p98
(dp99
g3
I0
sg4
I0
sg5
I0
sg6
I189583
sg7
I00
sg8
I0
sg9
S'john.wodraska@enron.com'
p100
sg11
I0
sg12
I0
sg13
I0
sg14
I0
sg15
I0
sg16
I0
sg17
I189583
sg18
I0
sg19
I0
sg20
I0
sg21
F0.0
sg22
I0
sg23
F0.0
sg24
I0
sg25
I0
sg26
I189583
sg27
I0
ssS'BERGSIEKER RICHARD P'
p101
(dp102
g3
I383
sg4
I0
sg5
I59175
sg6
I1278099
sg7
I00
sg8
I180250
sg9
S'rick.bergsieker@enron.com'
p103
sg11
I4
sg12
I-485813
sg13
I0
sg14
I233
sg15
I0
sg16
I59
sg17
I427316
sg18
I0
sg19
I250000
sg20
I659249
sg21
F1.07
sg22
I0
sg23
F0.53
sg24
I659249
sg25
I187922
sg26
I618850
sg27
I0
ssS'URQUHART JOHN A'
p104
(dp105
g3
I0
sg4
I0
sg5
I228656
sg6
I228656
sg7
I00
sg8
I0
sg9
I0
sg11
I0
sg12
I-36666
sg13
I0
sg14
I0
sg15
I0
sg16
I0
sg17
I0
sg18
I36666
sg19
I0
sg20
I0
sg21
F0.0
sg22
I0
sg23
F0.0
sg24
I0
sg25
I0
sg26
I228656
sg27
I0
ssS'BIBI PHILIPPE A'
p106
(dp107
g3
I1607
sg4
I0
sg5
I38559
sg6
I3891409
sg7
I00
sg8
I369721
sg9
S'philippe.bibi@enron.com'
p108
sg11
I23
sg12
I0
sg13
I0
sg14
I1336
sg15
I0
sg16
I40
sg17
I425688
sg18
I0
sg19
I1000000
sg20
I1843816
sg21
F0.9
sg22
I8
sg23
F0.83
sg24
I378082
sg25
I213625
sg26
I2047593
sg27
I1465734
ssS'PIRO JIM'
p109
(dp110
g3
I58
sg4
I0
sg5
I0
sg6
I47304
sg7
I00
sg8
I0
sg9
S'jim.piro@enron.com'
p111
sg11
I0
sg12
I0
sg13
I0
sg14
I3
sg15
I0
sg16
I16
sg17
I0
sg18
I0
sg19
I0
sg20
I47304
sg21
F47304.0
sg22
I1
sg23
F0.05
sg24
I47304
sg25
I0
sg26
I0
sg27
I0
ssS'RIEKER PAULA H'
p112
(dp113
g3
I1328
sg4
I214678
sg5
I33271
sg6
I3017987
sg7
I01
sg8
I0
sg9
S'paula.rieker@enron.com'
p114
sg11
I35
sg12
I-100000
sg13
I0
sg14
I1258
sg15
I0
sg16
I82
sg17
I1950
sg18
I0
sg19
I700000
sg20
I1918887
sg21
F1.75
sg22
I48
sg23
F0.95
sg24
I283649
sg25
I249201
sg26
I1099100
sg27
I1635238
ssS'WHALEY DAVID A'
p115
(dp116
g3
I0
sg4
I0
sg5
I0
sg6
I98718
sg7
I00
sg8
I0
sg9
I0
sg11
I0
sg12
I0
sg13
I0
sg14
I0
sg15
I0
sg16
I0
sg17
I0
sg18
I0
sg19
I0
sg20
I98718
sg21
F98718.0
sg22
I0
sg23
F0.0
sg24
I0
sg25
I0
sg26
I0
sg27
I98718
ssS'BECK SALLY W'
p117
(dp118
g3
I7315
sg4
I0
sg5
I37172
sg6
I1095095
sg7
I00
sg8
I0
sg9
S'sally.beck@enron.com'
p119
sg11
I144
sg12
I0
sg13
I0
sg14
I2639
sg15
I0
sg16
I4343
sg17
I566
sg18
I0
sg19
I700000
sg20
I126027
sg21
F0.13
sg22
I386
sg23
F0.27
sg24
I126027
sg25
I231330
sg26
I969068
sg27
I0
ssS'HAUG DAVID L'
p120
(dp121
g3
I573
sg4
I0
sg5
I475
sg6
I2217774
sg7
I00
sg8
I0
sg9
S'david.haug@enron.com'
p122
sg11
I4
sg12
I0
sg13
I0
sg14
I471
sg15
I0
sg16
I19
sg17
I0
sg18
I0
sg19
I0
sg20
I2217299
sg21
F4658.19
sg22
I7
sg23
F0.81
sg24
I2217299
sg25
I0
sg26
I475
sg27
I0
ssS'ECHOLS JOHN B'
p123
(dp124
g3
I0
sg4
I0
sg5
I21530
sg6
I3701265
sg7
I00
sg8
I2234774
sg9
S'john.echols@enron.com'
p125
sg11
I0
sg12
I0
sg13
I0
sg14
I0
sg15
I0
sg16
I0
sg17
I53775
sg18
I0
sg19
I200000
sg20
I1008941
sg21
F0.37
sg22
I0
sg23
F0.0
sg24
I407503
sg25
I182245
sg26
I2692324
sg27
I601438
ssS'MENDELSOHN JOHN'
p126
(dp127
g3
I0
sg4
I0
sg5
I148
sg6
I148
sg7
I00
sg8
I0
sg9
I0
sg11
I0
sg12
I-103750
sg13
I0
sg14
I0
sg15
I0
sg16
I0
sg17
I0
sg18
I103750
sg19
I0
sg20
I0
sg21
F0.0
sg22
I0
sg23
F0.0
sg24
I0
sg25
I0
sg26
I148
sg27
I0
ssS'HICKERSON GARY J'
p128
(dp129
g3
I1320
sg4
I0
sg5
I98849
sg6
I2522892
sg7
I00
sg8
I69223
sg9
S'gary.hickerson@enron.com'
p130
sg11
I40
sg12
I0
sg13
I0
sg14
I900
sg15
I0
sg16
I27
sg17
I1936
sg18
I0
sg19
I1700000
sg20
I441096
sg21
F0.21
sg22
I1
sg23
F0.7
sg24
I441096
sg25
I211788
sg26
I2081796
sg27
I0
ssS'CLINE KENNETH W'
p131
(dp132
g3
I0
sg4
I0
sg5
I0
sg6
I189518
sg7
I00
sg8
I0
sg9
I0
sg11
I0
sg12
I0
sg13
I-472568
sg14
I0
sg15
I0
sg16
I0
sg17
I0
sg18
I0
sg19
I0
sg20
I189518
sg21
F189518.0
sg22
I0
sg23
F0.0
sg24
I662086
sg25
I0
sg26
I0
sg27
I0
ssS'LEWIS RICHARD'
p133
(dp134
g3
I952
sg4
I0
sg5
I0
sg6
I850477
sg7
I00
sg8
I0
sg9
S'richard.lewis@enron.com'
p135
sg11
I10
sg12
I0
sg13
I0
sg14
I739
sg15
I0
sg16
I26
sg17
I0
sg18
I0
sg19
I0
sg20
I850477
sg21
F850477.0
sg22
I0
sg23
F0.77
sg24
I0
sg25
I0
sg26
I0
sg27
I850477
ssS'HAYES ROBERT E'
p136
(dp137
g3
I504
sg4
I7961
sg5
I0
sg6
I159379
sg7
I00
sg8
I0
sg9
S'robert.hayes@enron.com'
p138
sg11
I16
sg12
I0
sg13
I0
sg14
I50
sg15
I0
sg16
I12
sg17
I0
sg18
I0
sg19
I0
sg20
I151418
sg21
F19.02
sg22
I0
sg23
F0.13
sg24
I151418
sg25
I0
sg26
I7961
sg27
I0
ssS'KOPPER MICHAEL J'
p139
(dp140
g3
I0
sg4
I0
sg5
I118134
sg6
I3637644
sg7
I01
sg8
I602671
sg9
S'michael.kopper@enron.com'
p141
sg11
I0
sg12
I0
sg13
I0
sg14
I0
sg15
I0
sg16
I0
sg17
I907502
sg18
I0
sg19
I800000
sg20
I985032
sg21
F0.37
sg22
I0
sg23
F0.0
sg24
I985032
sg25
I224305
sg26
I2652612
sg27
I0
ssS'LEFF DANIEL P'
p142
(dp143
g3
I2822
sg4
I0
sg5
I0
sg6
I3024756
sg7
I00
sg8
I1387399
sg9
S'dan.leff@enron.com'
p144
sg11
I67
sg12
I0
sg13
I0
sg14
I2672
sg15
I0
sg16
I63
sg17
I3083
sg18
I0
sg19
I1000000
sg20
I360528
sg21
F0.14
sg22
I14
sg23
F0.95
sg24
I360528
sg25
I273746
sg26
I2664228
sg27
I0
ssS'LAVORATO JOHN J'
p145
(dp146
g3
I7259
sg4
I0
sg5
I49537
sg6
I15592901
sg7
I00
sg8
I2035380
sg9
S'john.lavorato@enron.com'
p147
sg11
I528
sg12
I0
sg13
I0
sg14
I3962
sg15
I0
sg16
I2585
sg17
I1552
sg18
I0
sg19
I8000000
sg20
I5167144
sg21
F0.5
sg22
I411
sg23
F0.5
sg24
I1008149
sg25
I339288
sg26
I10425757
sg27
I4158995
ssS'BERBERIAN DAVID'
p148
(dp149
g3
I0
sg4
I0
sg5
I11892
sg6
I2722090
sg7
I00
sg8
I0
sg9
S'david.berberian@enron.com'
p150
sg11
I0
sg12
I0
sg13
I0
sg14
I0
sg15
I0
sg16
I0
sg17
I0
sg18
I0
sg19
I0
sg20
I2493616
sg21
F10.91
sg22
I0
sg23
F0.0
sg24
I869220
sg25
I216582
sg26
I228474
sg27
I1624396
ssS'DETMERING TIMOTHY J'
p151
(dp152
g3
I0
sg4
I875307
sg5
I52255
sg6
I3232448
sg7
I00
sg8
I415657
sg9
S'timothy.detmering@enron.com'
p153
sg11
I0
sg12
I-775241
sg13
I-315068
sg14
I0
sg15
I0
sg16
I0
sg17
I1105
sg18
I0
sg19
I425000
sg20
I2027865
sg21
F1.68
sg22
I0
sg23
F0.0
sg24
I315068
sg25
I210500
sg26
I1204583
sg27
I2027865
ssS'WAKEHAM JOHN'
p154
(dp155
g3
I0
sg4
I0
sg5
I103773
sg6
I213071
sg7
I00
sg8
I0
sg9
I0
sg11
I0
sg12
I0
sg13
I0
sg14
I0
sg15
I0
sg16
I0
sg17
I0
sg18
I109298
sg19
I0
sg20
I0
sg21
F0.0
sg22
I0
sg23
F0.0
sg24
I0
sg25
I0
sg26
I213071
sg27
I0
ssS'POWERS WILLIAM'
p156
(dp157
g3
I653
sg4
I0
sg5
I0
sg6
I0
sg7
I00
sg8
I0
sg9
S'ken.powers@enron.com'
p158
sg11
I0
sg12
I-17500
sg13
I0
sg14
I12
sg15
I0
sg16
I26
sg17
I0
sg18
I17500
sg19
I0
sg20
I0
sg21
F0.0
sg22
I0
sg23
F0.02
sg24
I0
sg25
I0
sg26
I0
sg27
I0
ssS'GOLD JOSEPH'
p159
(dp160
g3
I0
sg4
I0
sg5
I0
sg6
I3024584
sg7
I00
sg8
I304805
sg9
S'joe.gold@enron.com'
p161
sg11
I0
sg12
I0
sg13
I0
sg14
I0
sg15
I0
sg16
I0
sg17
I819288
sg18
I0
sg19
I750000
sg20
I877611
sg21
F0.41
sg22
I0
sg23
F0.0
sg24
I441096
sg25
I272880
sg26
I2146973
sg27
I436515
ssS'BANNANTINE JAMES M'
p162
(dp163
g3
I566
sg4
I0
sg5
I56301
sg6
I6159684
sg7
I00
sg8
I0
sg9
S'james.bannantine@enron.com'
p164
sg11
I39
sg12
I-5104
sg13
I-560222
sg14
I465
sg15
I0
sg16
I29
sg17
I864523
sg18
I0
sg19
I0
sg20
I5243487
sg21
F5.72
sg22
I0
sg23
F0.85
sg24
I1757552
sg25
I477
sg26
I916197
sg27
I4046157
ssS'DUNCAN JOHN H'
p165
(dp166
g3
I0
sg4
I0
sg5
I0
sg6
I449242
sg7
I00
sg8
I0
sg9
I0
sg11
I0
sg12
I-25000
sg13
I0
sg14
I0
sg15
I0
sg16
I0
sg17
I0
sg18
I102492
sg19
I0
sg20
I371750
sg21
F4.8
sg22
I0
sg23
F0.0
sg24
I0
sg25
I0
sg26
I77492
sg27
I371750
ssS'SHAPIRO RICHARD S'
p167
(dp168
g3
I15149
sg4
I0
sg5
I137767
sg6
I2044549
sg7
I00
sg8
I0
sg9
S'richard.shapiro@enron.com'
p169
sg11
I74
sg12
I0
sg13
I0
sg14
I4527
sg15
I0
sg16
I1215
sg17
I705
sg18
I0
sg19
I650000
sg20
I987001
sg21
F0.93
sg22
I65
sg23
F0.29
sg24
I379164
sg25
I269076
sg26
I1057548
sg27
I607837
ssS'SHERRIFF JOHN R'
p170
(dp171
g3
I3187
sg4
I0
sg5
I0
sg6
I7464370
sg7
I00
sg8
I554422
sg9
S'john.sherriff@enron.com'
p172
sg11
I28
sg12
I0
sg13
I0
sg14
I2103
sg15
I0
sg16
I92
sg17
I1852186
sg18
I0
sg19
I1500000
sg20
I3128982
sg21
F0.72
sg22
I23
sg23
F0.66
sg24
I1293424
sg25
I428780
sg26
I4335388
sg27
I1835558
ssS'SHELBY REX'
p173
(dp174
g3
I225
sg4
I0
sg5
I22884
sg6
I4497501
sg7
I01
sg8
I0
sg9
S'rex.shelby@enron.com'
p175
sg11
I13
sg12
I-4167
sg13
I0
sg14
I91
sg15
I0
sg16
I39
sg17
I1573324
sg18
I0
sg19
I200000
sg20
I2493616
sg21
F1.24
sg22
I14
sg23
F0.45
sg24
I869220
sg25
I211844
sg26
I2003885
sg27
I1624396
ssS'LEMAISTRE CHARLES'
p176
(dp177
g3
I0
sg4
I0
sg5
I0
sg6
I500370
sg7
I00
sg8
I0
sg9
I0
sg11
I0
sg12
I-25000
sg13
I0
sg14
I0
sg15
I0
sg16
I0
sg17
I0
sg18
I112492
sg19
I0
sg20
I412878
sg21
F4.72
sg22
I0
sg23
F0.0
sg24
I0
sg25
I0
sg26
I87492
sg27
I412878
ssS'DEFFNER JOSEPH M'
p178
(dp179
g3
I714
sg4
I0
sg5
I41626
sg6
I1367860
sg7
I00
sg8
I335349
sg9
S'joseph.deffner@enron.com'
p180
sg11
I115
sg12
I0
sg13
I0
sg14
I552
sg15
I0
sg16
I74
sg17
I25553
sg18
I0
sg19
I600000
sg20
I159211
sg21
F0.13
sg22
I4
sg23
F0.85
sg24
I141833
sg25
I206121
sg26
I1208649
sg27
I17378
ssS'KISHKILL JOSEPH G'
p181
(dp182
g3
I0
sg4
I0
sg5
I116335
sg6
I1739242
sg7
I00
sg8
I0
sg9
S'joe.kishkill@enron.com'
p183
sg11
I0
sg12
I-51042
sg13
I0
sg14
I0
sg15
I0
sg16
I0
sg17
I465357
sg18
I0
sg19
I0
sg20
I1034346
sg21
F1.47
sg22
I0
sg23
F0.0
sg24
I1034346
sg25
I174246
sg26
I704896
sg27
I0
ssS'WHALLEY LAWRENCE G'
p184
(dp185
g3
I6019
sg4
I0
sg5
I57838
sg6
I10756711
sg7
I00
sg8
I808346
sg9
S'greg.whalley@enron.com'
p186
sg11
I186
sg12
I0
sg13
I0
sg14
I3920
sg15
I0
sg16
I556
sg17
I301026
sg18
I0
sg19
I3000000
sg20
I6079137
sg21
F1.3
sg22
I24
sg23
F0.63
sg24
I2796177
sg25
I510364
sg26
I4677574
sg27
I3282960
ssS'MCCARTY DANNY J'
p187
(dp188
g3
I1433
sg4
I0
sg5
I0
sg6
I758931
sg7
I00
sg8
I0
sg9
S'danny.mccarty@enron.com'
p189
sg11
I25
sg12
I0
sg13
I0
sg14
I508
sg15
I0
sg16
I215
sg17
I0
sg18
I0
sg19
I0
sg20
I758931
sg21
F758931.0
sg22
I2
sg23
F0.32
sg24
I94556
sg25
I0
sg26
I0
sg27
I664375
ssS'MCCONNELL MICHAEL S'
p190
(dp191
g3
I3329
sg4
I0
sg5
I81364
sg6
I5202643
sg7
I00
sg8
I554422
sg9
S'mike.mcconnell@enron.com'
p192
sg11
I92
sg12
I0
sg13
I0
sg14
I2189
sg15
I0
sg16
I2742
sg17
I540
sg18
I0
sg19
I1100000
sg20
I3101279
sg21
F1.48
sg22
I194
sg23
F0.41
sg24
I1478269
sg25
I365038
sg26
I2101364
sg27
I1623010
ssS'DELAINEY DAVID W'
p193
(dp194
g3
I3093
sg4
I0
sg5
I86174
sg6
I8362240
sg7
I01
sg8
I1294981
sg9
S'david.delainey@enron.com'
p195
sg11
I66
sg12
I0
sg13
I0
sg14
I2097
sg15
I0
sg16
I3069
sg17
I1661
sg18
I0
sg19
I3000000
sg20
I3614261
sg21
F0.76
sg22
I609
sg23
F0.45
sg24
I1323148
sg25
I365163
sg26
I4747979
sg27
I2291113
ssS'SULLIVAN-SHAKLOVITZ COLLEEN'
p196
(dp197
g3
I0
sg4
I181993
sg5
I0
sg6
I2361731
sg7
I00
sg8
I554422
sg9
I0
sg11
I0
sg12
I0
sg13
I0
sg14
I0
sg15
I0
sg16
I0
sg17
I162
sg18
I0
sg19
I100000
sg20
I1362375
sg21
F1.36
sg22
I0
sg23
F0.0
sg24
I0
sg25
I162779
sg26
I999356
sg27
I1362375
ssS'WROBEL BRUCE'
p198
(dp199
g3
I0
sg4
I0
sg5
I0
sg6
I139130
sg7
I00
sg8
I0
sg9
I0
sg11
I0
sg12
I0
sg13
I0
sg14
I0
sg15
I0
sg16
I0
sg17
I0
sg18
I0
sg19
I0
sg20
I139130
sg21
F139130.0
sg22
I0
sg23
F0.0
sg24
I0
sg25
I0
sg26
I0
sg27
I139130
ssS'LINDHOLM TOD A'
p200
(dp201
g3
I0
sg4
I204075
sg5
I57727
sg6
I3940097
sg7
I00
sg8
I175000
sg9
S'tod.lindholm@enron.com'
p202
sg11
I0
sg12
I0
sg13
I0
sg14
I0
sg15
I0
sg16
I0
sg17
I2630
sg18
I0
sg19
I200000
sg20
I3064208
sg21
F3.5
sg22
I0
sg23
F0.0
sg24
I514847
sg25
I236457
sg26
I875889
sg27
I2549361
ssS'MEYER JEROME J'
p203
(dp204
g3
I0
sg4
I0
sg5
I2151
sg6
I2151
sg7
I00
sg8
I0
sg9
I0
sg11
I0
sg12
I-38346
sg13
I0
sg14
I0
sg15
I0
sg16
I0
sg17
I0
sg18
I38346
sg19
I0
sg20
I0
sg21
F0.0
sg22
I0
sg23
F0.0
sg24
I0
sg25
I0
sg26
I2151
sg27
I0
ssS'LAY KENNETH L'
p205
(dp206
g3
I4273
sg4
I202911
sg5
I99832
sg6
I152669871
sg7
I01
sg8
I3600000
sg9
S'kenneth.lay@enron.com'
p207
sg11
I123
sg12
I-300000
sg13
I0
sg14
I2411
sg15
I81525000
sg16
I36
sg17
I10359729
sg18
I0
sg19
I7000000
sg20
I49110078
sg21
F0.47
sg22
I16
sg23
F0.59
sg24
I14761694
sg25
I1072321
sg26
I103559793
sg27
I34348384
ssS'BUTTS ROBERT H'
p208
(dp209
g3
I0
sg4
I0
sg5
I9410
sg6
I1689201
sg7
I00
sg8
I175000
sg9
S'bob.butts@enron.com'
p210
sg11
I0
sg12
I-75000
sg13
I0
sg14
I0
sg15
I0
sg16
I0
sg17
I150656
sg18
I0
sg19
I750000
sg20
I417619
sg21
F0.33
sg22
I0
sg23
F0.0
sg24
I417619
sg25
I261516
sg26
I1271582
sg27
I0
ssS'OLSON CINDY K'
p211
(dp212
g3
I1184
sg4
I77716
sg5
I63791
sg6
I3928320
sg7
I00
sg8
I100000
sg9
S'cindy.olson@enron.com'
p213
sg11
I20
sg12
I0
sg13
I0
sg14
I856
sg15
I0
sg16
I52
sg17
I972
sg18
I0
sg19
I750000
sg20
I2606763
sg21
F1.97
sg22
I15
sg23
F0.72
sg24
I969729
sg25
I329078
sg26
I1321557
sg27
I1637034
ssS'MCDONALD REBECCA'
p214
(dp215
g3
I894
sg4
I0
sg5
I0
sg6
I1691366
sg7
I00
sg8
I0
sg9
S'rebecca.mcdonald@enron.com'
p216
sg11
I54
sg12
I0
sg13
I0
sg14
I720
sg15
I0
sg16
I13
sg17
I0
sg18
I0
sg19
I0
sg20
I1691366
sg21
F1691366.0
sg22
I1
sg23
F0.85
sg24
I934065
sg25
I0
sg26
I0
sg27
I757301
ssS'CUMBERLAND MICHAEL S'
p217
(dp218
g3
I0
sg4
I0
sg5
I22344
sg6
I1015896
sg7
I00
sg8
I275000
sg9
I0
sg11
I0
sg12
I0
sg13
I0
sg14
I0
sg15
I0
sg16
I0
sg17
I713
sg18
I0
sg19
I325000
sg20
I207940
sg21
F0.26
sg22
I0
sg23
F0.0
sg24
I207940
sg25
I184899
sg26
I807956
sg27
I0
ssS'GAHN ROBERT S'
p219
(dp220
g3
I0
sg4
I73122
sg5
I50080
sg6
I1219192
sg7
I00
sg8
I0
sg9
I0
sg11
I0
sg12
I-1042
sg13
I0
sg14
I0
sg15
I0
sg16
I0
sg17
I76547
sg18
I0
sg19
I509870
sg20
I318607
sg21
F0.35
sg22
I0
sg23
F0.0
sg24
I235370
sg25
I192008
sg26
I900585
sg27
I83237
ssS'MCCLELLAN GEORGE'
p221
(dp222
g3
I1744
sg4
I0
sg5
I228763
sg6
I2266624
sg7
I00
sg8
I0
sg9
S'george.mcclellan@enron.com'
p223
sg11
I52
sg12
I-125000
sg13
I0
sg14
I1469
sg15
I0
sg16
I49
sg17
I51587
sg18
I0
sg19
I900000
sg20
I947861
sg21
F0.72
sg22
I0
sg23
F0.85
sg24
I441096
sg25
I263413
sg26
I1318763
sg27
I506765
ssS'HERMANN ROBERT J'
p224
(dp225
g3
I0
sg4
I0
sg5
I48357
sg6
I1965593
sg7
I00
sg8
I150000
sg9
S'robert.hermann@enron.com'
p226
sg11
I0
sg12
I-280000
sg13
I0
sg14
I0
sg15
I0
sg16
I0
sg17
I416441
sg18
I0
sg19
I700000
sg20
I668132
sg21
F0.51
sg22
I0
sg23
F0.0
sg24
I480632
sg25
I262663
sg26
I1297461
sg27
I187500
ssS'SCRIMSHAW MATTHEW'
p227
(dp228
g3
I0
sg4
I0
sg5
I0
sg6
I759557
sg7
I00
sg8
I0
sg9
S'matthew.scrimshaw@enron.com'
p229
sg11
I0
sg12
I0
sg13
I0
sg14
I0
sg15
I0
sg16
I0
sg17
I0
sg18
I0
sg19
I0
sg20
I759557
sg21
F759557.0
sg22
I0
sg23
F0.0
sg24
I0
sg25
I0
sg26
I0
sg27
I759557
ssS'GATHMANN WILLIAM D'
p230
(dp231
g3
I0
sg4
I0
sg5
I0
sg6
I1945360
sg7
I00
sg8
I0
sg9
I0
sg11
I0
sg12
I0
sg13
I-72419
sg14
I0
sg15
I0
sg16
I0
sg17
I0
sg18
I0
sg19
I0
sg20
I1945360
sg21
F1945360.0
sg22
I0
sg23
F0.0
sg24
I264013
sg25
I0
sg26
I0
sg27
I1753766
ssS'HAEDICKE MARK E'
p232
(dp233
g3
I4009
sg4
I2157527
sg5
I76169
sg6
I4662159
sg7
I00
sg8
I983346
sg9
S'mark.haedicke@enron.com'
p234
sg11
I180
sg12
I-934484
sg13
I-329825
sg14
I1847
sg15
I0
sg16
I1941
sg17
I52382
sg18
I0
sg19
I1150000
sg20
I803094
sg21
F0.21
sg22
I61
sg23
F0.35
sg24
I524169
sg25
I374125
sg26
I3859065
sg27
I608750
ssS'BOWEN JR RAYMOND M'
p235
(dp236
g3
I1858
sg4
I0
sg5
I65907
sg6
I2921644
sg7
I01
sg8
I974293
sg9
S'raymond.bowen@enron.com'
p237
sg11
I140
sg12
I-833
sg13
I0
sg14
I1593
sg15
I0
sg16
I27
sg17
I1621
sg18
I0
sg19
I1350000
sg20
I252055
sg21
F0.09
sg22
I15
sg23
F0.93
sg24
I252055
sg25
I278601
sg26
I2669589
sg27
I0
ssS'GILLIS JOHN'
p238
(dp239
g3
I0
sg4
I0
sg5
I0
sg6
I85641
sg7
I00
sg8
I0
sg9
I0
sg11
I0
sg12
I0
sg13
I0
sg14
I0
sg15
I0
sg16
I0
sg17
I0
sg18
I0
sg19
I0
sg20
I85641
sg21
F85641.0
sg22
I0
sg23
F0.0
sg24
I75838
sg25
I0
sg26
I0
sg27
I9803
ssS'FITZGERALD JAY L'
p240
(dp241
g3
I936
sg4
I0
sg5
I23870
sg6
I3036093
sg7
I00
sg8
I556416
sg9
S'jay.fitzgerald@enron.com'
p242
sg11
I1
sg12
I0
sg13
I0
sg14
I723
sg15
I0
sg16
I16
sg17
I285414
sg18
I0
sg19
I350000
sg20
I1621236
sg21
F1.15
sg22
I8
sg23
F0.77
sg24
I956775
sg25
I199157
sg26
I1414857
sg27
I664461
ssS'MORAN MICHAEL P'
p243
(dp244
g3
I672
sg4
I0
sg5
I0
sg6
I221141
sg7
I00
sg8
I0
sg9
S'michael.moran@enron.com'
p245
sg11
I0
sg12
I0
sg13
I0
sg14
I127
sg15
I0
sg16
I19
sg17
I0
sg18
I0
sg19
I0
sg20
I221141
sg21
F221141.0
sg22
I0
sg23
F0.18
sg24
I161602
sg25
I0
sg26
I0
sg27
I59539
ssS'REDMOND BRIAN L'
p246
(dp247
g3
I1671
sg4
I0
sg5
I14689
sg6
I8001853
sg7
I00
sg8
I0
sg9
S'brian.redmond@enron.com'
p248
sg11
I204
sg12
I0
sg13
I0
sg14
I1063
sg15
I0
sg16
I221
sg17
I0
sg18
I0
sg19
I0
sg20
I7890324
sg21
F70.75
sg22
I49
sg23
F0.7
sg24
I381285
sg25
I96840
sg26
I111529
sg27
I7509039
ssS'BAZELIDES PHILIP J'
p249
(dp250
g3
I0
sg4
I684694
sg5
I0
sg6
I2459777
sg7
I00
sg8
I93750
sg9
I0
sg11
I0
sg12
I0
sg13
I0
sg14
I0
sg15
I0
sg16
I0
sg17
I874
sg18
I0
sg19
I0
sg20
I1599641
sg21
F1.86
sg22
I0
sg23
F0.0
sg24
I0
sg25
I80818
sg26
I860136
sg27
I1599641
ssS'BELDEN TIMOTHY N'
p251
(dp252
g3
I7991
sg4
I2144013
sg5
I17355
sg6
I6612335
sg7
I01
sg8
I0
sg9
S'tim.belden@enron.com'
p253
sg11
I228
sg12
I-2334434
sg13
I0
sg14
I5521
sg15
I0
sg16
I484
sg17
I210698
sg18
I0
sg19
I5249999
sg20
I1110705
sg21
F0.2
sg22
I108
sg23
F0.69
sg24
I157569
sg25
I213999
sg26
I5501630
sg27
I953136
ssS'DURAN WILLIAM D'
p254
(dp255
g3
I904
sg4
I0
sg5
I25785
sg6
I3734173
sg7
I00
sg8
I1105218
sg9
S'w.duran@enron.com'
p256
sg11
I106
sg12
I0
sg13
I0
sg14
I599
sg15
I0
sg16
I12
sg17
I1568
sg18
I0
sg19
I750000
sg20
I1640910
sg21
F0.78
sg22
I3
sg23
F0.77
sg24
I189041
sg25
I210692
sg26
I2093263
sg27
I1451869
ssS'THORN TERENCE H'
p257
(dp258
g3
I266
sg4
I16586
sg5
I46145
sg6
I5729249
sg7
I00
sg8
I200000
sg9
S'terence.thorn@enron.com'
p259
sg11
I0
sg12
I0
sg13
I0
sg14
I73
sg15
I0
sg16
I41
sg17
I426629
sg18
I0
sg19
I0
sg20
I4817796
sg21
F5.29
sg22
I0
sg23
F0.24
sg24
I365320
sg25
I222093
sg26
I911453
sg27
I4452476
ssS'FASTOW ANDREW S'
p260
(dp261
g3
I0
sg4
I0
sg5
I55921
sg6
I4218495
sg7
I01
sg8
I1736055
sg9
S'andrew.fastow@enron.com'
p262
sg11
I0
sg12
I-1386055
sg13
I0
sg14
I0
sg15
I0
sg16
I0
sg17
I277464
sg18
I0
sg19
I1300000
sg20
I1794412
sg21
F0.74
sg22
I0
sg23
F0.0
sg24
I1794412
sg25
I440698
sg26
I2424083
sg27
I0
ssS'FOY JOE'
p263
(dp264
g3
I57
sg4
I181755
sg5
I0
sg6
I525189
sg7
I00
sg8
I0
sg9
S'tracy.foy@enron.com'
p265
sg11
I0
sg12
I0
sg13
I0
sg14
I2
sg15
I0
sg16
I13
sg17
I0
sg18
I0
sg19
I0
sg20
I343434
sg21
F1.89
sg22
I0
sg23
F0.03
sg24
I0
sg25
I0
sg26
I181755
sg27
I343434
ssS'CALGER CHRISTOPHER F'
p266
(dp267
g3
I2598
sg4
I0
sg5
I35818
sg6
I1765324
sg7
I01
sg8
I375304
sg9
S'christopher.calger@enron.com'
p268
sg11
I199
sg12
I-262500
sg13
I0
sg14
I2188
sg15
I0
sg16
I144
sg17
I486
sg18
I0
sg19
I1250000
sg20
I126027
sg21
F0.08
sg22
I25
sg23
F0.88
sg24
I126027
sg25
I240189
sg26
I1639297
sg27
I0
ssS'RICE KENNETH D'
p269
(dp270
g3
I905
sg4
I0
sg5
I46950
sg6
I23047589
sg7
I01
sg8
I1617011
sg9
S'ken.rice@enron.com'
p271
sg11
I42
sg12
I-3504386
sg13
I0
sg14
I864
sg15
I0
sg16
I18
sg17
I174839
sg18
I0
sg19
I1750000
sg20
I22542539
sg21
F44.63
sg22
I4
sg23
F0.98
sg24
I2748364
sg25
I420636
sg26
I505050
sg27
I19794175
ssS'KAMINSKI WINCENTY J'
p272
(dp273
g3
I4607
sg4
I0
sg5
I83585
sg6
I2062858
sg7
I00
sg8
I323466
sg9
S'vince.kaminski@enron.com'
p274
sg11
I41
sg12
I0
sg13
I0
sg14
I583
sg15
I0
sg16
I14368
sg17
I4669
sg18
I0
sg19
I400000
sg20
I976037
sg21
F0.9
sg22
I171
sg23
F0.04
sg24
I126027
sg25
I275101
sg26
I1086821
sg27
I850010
ssS'COX DAVID'
p275
(dp276
g3
I102
sg4
I0
sg5
I27861
sg6
I1597026
sg7
I00
sg8
I0
sg9
S'chip.cox@enron.com'
p277
sg11
I0
sg12
I-41250
sg13
I0
sg14
I71
sg15
I0
sg16
I33
sg17
I494
sg18
I0
sg19
I800000
sg20
I495633
sg21
F0.45
sg22
I4
sg23
F0.55
sg24
I378082
sg25
I314288
sg26
I1101393
sg27
I117551
ssS'OVERDYKE JR JERE C'
p278
(dp279
g3
I0
sg4
I0
sg5
I18834
sg6
I7557381
sg7
I00
sg8
I135836
sg9
S'jere.overdyke@enron.com'
p280
sg11
I0
sg12
I0
sg13
I0
sg14
I0
sg15
I0
sg16
I0
sg17
I176
sg18
I0
sg19
I0
sg20
I7307594
sg21
F29.26
sg22
I0
sg23
F0.0
sg24
I2041016
sg25
I94941
sg26
I249787
sg27
I5266578
ssS'PEREIRA PAULO V. FERRAZ'
p281
(dp282
g3
I0
sg4
I0
sg5
I27942
sg6
I27942
sg7
I00
sg8
I0
sg9
I0
sg11
I0
sg12
I-101250
sg13
I0
sg14
I0
sg15
I0
sg16
I0
sg17
I0
sg18
I101250
sg19
I0
sg20
I0
sg21
F0.0
sg22
I0
sg23
F0.0
sg24
I0
sg25
I0
sg26
I27942
sg27
I0
ssS'STABLER FRANK'
p283
(dp284
g3
I0
sg4
I0
sg5
I16514
sg6
I1623821
sg7
I00
sg8
I0
sg9
S'frank.stabler@enron.com'
p285
sg11
I0
sg12
I0
sg13
I0
sg14
I0
sg15
I0
sg16
I0
sg17
I356071
sg18
I0
sg19
I500000
sg20
I511734
sg21
F0.46
sg22
I0
sg23
F0.0
sg24
I511734
sg25
I239502
sg26
I1112087
sg27
I0
ssS'SKILLING JEFFREY K'
p286
(dp287
g3
I3627
sg4
I0
sg5
I29336
sg6
I34776388
sg7
I01
sg8
I1920000
sg9
S'jeff.skilling@enron.com'
p288
sg11
I88
sg12
I0
sg13
I0
sg14
I2042
sg15
I0
sg16
I108
sg17
I22122
sg18
I0
sg19
I5600000
sg20
I26093672
sg21
F3.01
sg22
I30
sg23
F0.58
sg24
I6843672
sg25
I1111258
sg26
I8682716
sg27
I19250000
ssS'BLAKE JR. NORMAN P'
p289
(dp290
g3
I0
sg4
I0
sg5
I1279
sg6
I1279
sg7
I00
sg8
I0
sg9
I0
sg11
I0
sg12
I-113784
sg13
I0
sg14
I0
sg15
I0
sg16
I0
sg17
I0
sg18
I113784
sg19
I0
sg20
I0
sg21
F0.0
sg22
I0
sg23
F0.0
sg24
I0
sg25
I0
sg26
I1279
sg27
I0
ssS'SHERRICK JEFFREY B'
p291
(dp292
g3
I613
sg4
I0
sg5
I0
sg6
I1832468
sg7
I00
sg8
I0
sg9
S'jeffrey.sherrick@enron.com'
p293
sg11
I39
sg12
I0
sg13
I0
sg14
I583
sg15
I0
sg16
I25
sg17
I0
sg18
I0
sg19
I0
sg20
I1832468
sg21
F1832468.0
sg22
I18
sg23
F1.0
sg24
I405999
sg25
I0
sg26
I0
sg27
I1426469
ssS'PRENTICE JAMES'
p294
(dp295
g3
I0
sg4
I564348
sg5
I0
sg6
I1659388
sg7
I00
sg8
I0
sg9
S'james.prentice@enron.com'
p296
sg11
I0
sg12
I0
sg13
I0
sg14
I0
sg15
I0
sg16
I0
sg17
I0
sg18
I0
sg19
I0
sg20
I1095040
sg21
F1.94
sg22
I0
sg23
F0.0
sg24
I208809
sg25
I0
sg26
I564348
sg27
I886231
ssS'GRAY RODNEY'
p297
(dp298
g3
I0
sg4
I93585
sg5
I0
sg6
I1146658
sg7
I00
sg8
I365625
sg9
I0
sg11
I0
sg12
I0
sg13
I0
sg14
I0
sg15
I0
sg16
I0
sg17
I680833
sg18
I0
sg19
I0
sg20
I0
sg21
F0.0
sg22
I0
sg23
F0.0
sg24
I0
sg25
I6615
sg26
I1146658
sg27
I0
ssS'PICKERING MARK R'
p299
(dp300
g3
I898
sg4
I0
sg5
I31653
sg6
I1415488
sg7
I00
sg8
I0
sg9
S'mark.pickering@enron.com'
p301
sg11
I7
sg12
I0
sg13
I0
sg14
I728
sg15
I400000
sg16
I67
sg17
I0
sg18
I0
sg19
I300000
sg20
I28798
sg21
F0.02
sg22
I0
sg23
F0.76
sg24
I0
sg25
I655037
sg26
I1386690
sg27
I28798
ssS'THE TRAVEL AGENCY IN THE PARK'
p302
(dp303
g3
I0
sg4
I0
sg5
I0
sg6
I362096
sg7
I00
sg8
I0
sg9
I0
sg11
I0
sg12
I0
sg13
I0
sg14
I0
sg15
I0
sg16
I0
sg17
I362096
sg18
I0
sg19
I0
sg20
I0
sg21
F0.0
sg22
I0
sg23
F0.0
sg24
I0
sg25
I0
sg26
I362096
sg27
I0
ssS'NOLES JAMES L'
p304
(dp305
g3
I0
sg4
I774401
sg5
I0
sg6
I1143106
sg7
I00
sg8
I0
sg9
I0
sg11
I0
sg12
I0
sg13
I-94556
sg14
I0
sg15
I0
sg16
I0
sg17
I0
sg18
I0
sg19
I0
sg20
I368705
sg21
F0.48
sg22
I0
sg23
F0.0
sg24
I463261
sg25
I0
sg26
I774401
sg27
I0
ssS'KEAN STEVEN J'
p306
(dp307
g3
I12754
sg4
I0
sg5
I41953
sg6
I7901164
sg7
I00
sg8
I300000
sg9
S'steven.kean@enron.com'
p308
sg11
I140
sg12
I0
sg13
I0
sg14
I3639
sg15
I0
sg16
I6759
sg17
I1231
sg18
I0
sg19
I1000000
sg20
I6153642
sg21
F3.52
sg22
I387
sg23
F0.21
sg24
I4131594
sg25
I404338
sg26
I1747522
sg27
I2022048
ssS'FOWLER PEGGY'
p309
(dp310
g3
I517
sg4
I0
sg5
I0
sg6
I1884748
sg7
I00
sg8
I0
sg9
S'kulvinder.fowler@enron.com'
p311
sg11
I0
sg12
I0
sg13
I0
sg14
I10
sg15
I0
sg16
I36
sg17
I0
sg18
I0
sg19
I0
sg20
I1884748
sg21
F1884748.0
sg22
I0
sg23
F0.02
sg24
I560170
sg25
I0
sg26
I0
sg27
I1324578
ssS'WASAFF GEORGE'
p312
(dp313
g3
I400
sg4
I831299
sg5
I0
sg6
I3090822
sg7
I00
sg8
I200000
sg9
S'george.wasaff@enron.com'
p314
sg11
I22
sg12
I-583325
sg13
I0
sg14
I337
sg15
I0
sg16
I30
sg17
I1425
sg18
I0
sg19
I325000
sg20
I2056427
sg21
F1.99
sg22
I7
sg23
F0.85
sg24
I388167
sg25
I259996
sg26
I1034395
sg27
I1668260
ssS'WHITE JR THOMAS E'
p315
(dp316
g3
I0
sg4
I0
sg5
I81353
sg6
I17078482
sg7
I00
sg8
I0
sg9
S'thomas.white@enron.com'
p317
sg11
I0
sg12
I0
sg13
I0
sg14
I0
sg15
I0
sg16
I0
sg17
I1085463
sg18
I0
sg19
I450000
sg20
I15144123
sg21
F7.83
sg22
I0
sg23
F0.0
sg24
I13847074
sg25
I317543
sg26
I1934359
sg27
I1297049
ssS'CHRISTODOULOU DIOMEDES'
p318
(dp319
g3
I0
sg4
I0
sg5
I0
sg6
I6077885
sg7
I00
sg8
I0
sg9
S'diomedes.christodoulou@enron.com'
p320
sg11
I0
sg12
I0
sg13
I0
sg14
I0
sg15
I0
sg16
I0
sg17
I0
sg18
I0
sg19
I0
sg20
I6077885
sg21
F6077885.0
sg22
I0
sg23
F0.0
sg24
I950730
sg25
I0
sg26
I0
sg27
I5127155
ssS'ALLEN PHILLIP K'
p321
(dp322
g3
I2902
sg4
I2869717
sg5
I13868
sg6
I6213983
sg7
I00
sg8
I304805
sg9
S'phillip.allen@enron.com'
p323
sg11
I47
sg12
I-3081055
sg13
I-126027
sg14
I1407
sg15
I0
sg16
I2195
sg17
I152
sg18
I0
sg19
I4175000
sg20
I1729541
sg21
F0.39
sg22
I65
sg23
F0.3
sg24
I126027
sg25
I201955
sg26
I4484442
sg27
I1729541
ssS'SHARP VICTORIA T'
p324
(dp325
g3
I3136
sg4
I187469
sg5
I116337
sg6
I2070647
sg7
I00
sg8
I422158
sg9
S'vicki.sharp@enron.com'
p326
sg11
I24
sg12
I0
sg13
I0
sg14
I2477
sg15
I0
sg16
I136
sg17
I2401
sg18
I0
sg19
I600000
sg20
I494136
sg21
F0.31
sg22
I6
sg23
F0.77
sg24
I213063
sg25
I248146
sg26
I1576511
sg27
I281073
ssS'JAEDICKE ROBERT'
p327
(dp328
g3
I0
sg4
I0
sg5
I0
sg6
I515500
sg7
I00
sg8
I0
sg9
I0
sg11
I0
sg12
I-25000
sg13
I-44093
sg14
I0
sg15
I0
sg16
I0
sg17
I0
sg18
I108750
sg19
I0
sg20
I431750
sg21
F5.16
sg22
I0
sg23
F0.0
sg24
I44093
sg25
I0
sg26
I83750
sg27
I431750
ssS'WINOKUR JR. HERBERT S'
p329
(dp330
g3
I0
sg4
I0
sg5
I1413
sg6
I84992
sg7
I00
sg8
I0
sg9
I0
sg11
I0
sg12
I-25000
sg13
I0
sg14
I0
sg15
I0
sg16
I0
sg17
I0
sg18
I108579
sg19
I0
sg20
I0
sg21
F0.0
sg22
I0
sg23
F0.0
sg24
I0
sg25
I0
sg26
I84992
sg27
I0
ssS'BROWN MICHAEL'
p331
(dp332
g3
I1486
sg4
I0
sg5
I49288
sg6
I49288
sg7
I00
sg8
I0
sg9
S'michael.brown@enron.com'
p333
sg11
I13
sg12
I0
sg13
I0
sg14
I761
sg15
I0
sg16
I41
sg17
I0
sg18
I0
sg19
I0
sg20
I0
sg21
F0.0
sg22
I1
sg23
F0.51
sg24
I0
sg25
I0
sg26
I49288
sg27
I0
ssS'BADUM JAMES P'
p334
(dp335
g3
I0
sg4
I178980
sg5
I3486
sg6
I440283
sg7
I00
sg8
I0
sg9
I0
sg11
I0
sg12
I0
sg13
I0
sg14
I0
sg15
I0
sg16
I0
sg17
I0
sg18
I0
sg19
I0
sg20
I257817
sg21
F1.41
sg22
I0
sg23
F0.0
sg24
I0
sg25
I0
sg26
I182466
sg27
I257817
ssS'HUGHES JAMES A'
p336
(dp337
g3
I719
sg4
I0
sg5
I0
sg6
I1118394
sg7
I00
sg8
I0
sg9
S'james.hughes@enron.com'
p338
sg11
I35
sg12
I0
sg13
I0
sg14
I589
sg15
I0
sg16
I34
sg17
I0
sg18
I0
sg19
I0
sg20
I1118394
sg21
F1118394.0
sg22
I5
sg23
F0.83
sg24
I363428
sg25
I0
sg26
I0
sg27
I754966
ssS'REYNOLDS LAWRENCE'
p339
(dp340
g3
I0
sg4
I51365
sg5
I8409
sg6
I4616366
sg7
I00
sg8
I156250
sg9
I0
sg11
I0
sg12
I-200000
sg13
I-140264
sg14
I0
sg15
I0
sg16
I0
sg17
I202052
sg18
I0
sg19
I100000
sg20
I4221891
sg21
F10.7
sg22
I0
sg23
F0.0
sg24
I201483
sg25
I76399
sg26
I394475
sg27
I4160672
ssS'DIMICHELE RICHARD G'
p341
(dp342
g3
I0
sg4
I0
sg5
I35812
sg6
I10685933
sg7
I00
sg8
I694862
sg9
S'richard.dimichele@enron.com'
p343
sg11
I0
sg12
I0
sg13
I0
sg14
I0
sg15
I0
sg16
I0
sg17
I374689
sg18
I0
sg19
I1000000
sg20
I8317782
sg21
F3.51
sg22
I0
sg23
F0.0
sg24
I126027
sg25
I262788
sg26
I2368151
sg27
I8191755
ssS'BHATNAGAR SANJAY'
p344
(dp345
g3
I523
sg4
I0
sg5
I0
sg6
I15456290
sg7
I00
sg8
I0
sg9
S'sanjay.bhatnagar@enron.com'
p346
sg11
I0
sg12
I0
sg13
I15456290
sg14
I463
sg15
I0
sg16
I29
sg17
I137864
sg18
I137864
sg19
I0
sg20
I0
sg21
F0.0
sg22
I1
sg23
F0.84
sg24
I-2604490
sg25
I0
sg26
I15456290
sg27
I2604490
ssS'CARTER REBECCA C'
p347
(dp348
g3
I312
sg4
I0
sg5
I0
sg6
I477557
sg7
I00
sg8
I75000
sg9
S'rebecca.carter@enron.com'
p349
sg11
I29
sg12
I-159792
sg13
I-307301
sg14
I196
sg15
I0
sg16
I15
sg17
I540
sg18
I0
sg19
I300000
sg20
I0
sg21
F0.0
sg22
I7
sg23
F0.71
sg24
I307301
sg25
I261809
sg26
I477557
sg27
I0
ssS'BUCHANAN HAROLD G'
p350
(dp351
g3
I1088
sg4
I0
sg5
I600
sg6
I2069142
sg7
I00
sg8
I304805
sg9
S'john.buchanan@enron.com'
p352
sg11
I0
sg12
I0
sg13
I0
sg14
I23
sg15
I0
sg16
I125
sg17
I1215
sg18
I0
sg19
I500000
sg20
I1014505
sg21
F0.96
sg22
I0
sg23
F0.02
sg24
I189041
sg25
I248017
sg26
I1054637
sg27
I825464
ssS'YEAP SOON'
p353
(dp354
g3
I0
sg4
I0
sg5
I55097
sg6
I247855
sg7
I00
sg8
I0
sg9
I0
sg11
I0
sg12
I0
sg13
I0
sg14
I0
sg15
I0
sg16
I0
sg17
I0
sg18
I0
sg19
I0
sg20
I192758
sg21
F3.5
sg22
I0
sg23
F0.0
sg24
I0
sg25
I0
sg26
I55097
sg27
I192758
ssS'MURRAY JULIA H'
p355
(dp356
g3
I2192
sg4
I0
sg5
I57580
sg6
I1409655
sg7
I00
sg8
I125000
sg9
S'julia.murray@enron.com'
p357
sg11
I11
sg12
I0
sg13
I0
sg14
I395
sg15
I0
sg16
I45
sg17
I330
sg18
I0
sg19
I400000
sg20
I597461
sg21
F0.74
sg22
I2
sg23
F0.18
sg24
I196983
sg25
I229284
sg26
I812194
sg27
I400478
ssS'GARLAND C KEVIN'
p358
(dp359
g3
I209
sg4
I0
sg5
I48405
sg6
I2462622
sg7
I00
sg8
I375304
sg9
S'kevin.garland@enron.com'
p360
sg11
I10
sg12
I0
sg13
I0
sg14
I178
sg15
I0
sg16
I44
sg17
I60814
sg18
I0
sg19
I850000
sg20
I896153
sg21
F0.57
sg22
I27
sg23
F0.85
sg24
I259907
sg25
I231946
sg26
I1566469
sg27
I636246
ssS'DODSON KEITH'
p361
(dp362
g3
I176
sg4
I0
sg5
I28164
sg6
I319941
sg7
I00
sg8
I0
sg9
S'keith.dodson@enron.com'
p363
sg11
I10
sg12
I0
sg13
I0
sg14
I114
sg15
I0
sg16
I14
sg17
I774
sg18
I0
sg19
I70000
sg20
I0
sg21
F0.0
sg22
I3
sg23
F0.66
sg24
I0
sg25
I221003
sg26
I319941
sg27
I0
ssS'YEAGER F SCOTT'
p364
(dp365
g3
I0
sg4
I0
sg5
I53947
sg6
I12245058
sg7
I01
sg8
I0
sg9
S'scott.yeager@enron.com'
p366
sg11
I0
sg12
I0
sg13
I0
sg14
I0
sg15
I0
sg16
I0
sg17
I147950
sg18
I0
sg19
I0
sg20
I11884758
sg21
F32.99
sg22
I0
sg23
F0.0
sg24
I3576206
sg25
I158403
sg26
I360300
sg27
I8308552
ssS'HIRKO JOSEPH'
p367
(dp368
g3
I0
sg4
I10259
sg5
I77978
sg6
I30857157
sg7
I01
sg8
I0
sg9
S'joe.hirko@enron.com'
p369
sg11
I0
sg12
I0
sg13
I0
sg14
I0
sg15
I0
sg16
I0
sg17
I2856
sg18
I0
sg19
I0
sg20
I30766064
sg21
F337.74
sg22
I0
sg23
F0.0
sg24
I0
sg25
I0
sg26
I91093
sg27
I30766064
ssS'DIETRICH JANET R'
p370
(dp371
g3
I2572
sg4
I0
sg5
I3475
sg6
I3275551
sg7
I00
sg8
I556416
sg9
S'janet.dietrich@enron.com'
p372
sg11
I305
sg12
I0
sg13
I0
sg14
I1902
sg15
I0
sg16
I63
sg17
I473
sg18
I0
sg19
I600000
sg20
I1865087
sg21
F1.32
sg22
I14
sg23
F0.84
sg24
I315068
sg25
I250100
sg26
I1410464
sg27
I1550019
ssS'DERRICK JR. JAMES V'
p373
(dp374
g3
I2181
sg4
I0
sg5
I51124
sg6
I9382894
sg7
I00
sg8
I484000
sg9
S'james.derrick@enron.com'
p375
sg11
I64
sg12
I-1284000
sg13
I-1787380
sg14
I1401
sg15
I0
sg16
I909
sg17
I7482
sg18
I0
sg19
I800000
sg20
I8831913
sg21
F16.03
sg22
I20
sg23
F0.48
sg24
I1787380
sg25
I492375
sg26
I550981
sg27
I8831913
ssS'FREVERT MARK A'
p376
(dp377
g3
I3275
sg4
I6426990
sg5
I86987
sg6
I31874715
sg7
I00
sg8
I1617011
sg9
S'mark.frevert@enron.com'
p378
sg11
I242
sg12
I-3367011
sg13
I0
sg14
I2979
sg15
I2000000
sg16
I21
sg17
I7427621
sg18
I0
sg19
I2000000
sg20
I14622185
sg21
F0.85
sg22
I6
sg23
F0.98
sg24
I4188667
sg25
I1060932
sg26
I17252530
sg27
I10433518
ssS'PAI LOU L'
p379
(dp380
g3
I0
sg4
I0
sg5
I32047
sg6
I26941313
sg7
I00
sg8
I0
sg9
S'lou.pai@enron.com'
p381
sg11
I0
sg12
I0
sg13
I0
sg14
I0
sg15
I0
sg16
I0
sg17
I1829457
sg18
I0
sg19
I1000000
sg20
I23817930
sg21
F7.63
sg22
I0
sg23
F0.0
sg24
I8453763
sg25
I261879
sg26
I3123383
sg27
I15364167
ssS'BAY FRANKLIN R'
p382
(dp383
g3
I0
sg4
I260455
sg5
I129142
sg6
I890710
sg7
I00
sg8
I0
sg9
S'frank.bay@enron.com'
p384
sg11
I0
sg12
I-201641
sg13
I-82782
sg14
I0
sg15
I0
sg16
I0
sg17
I69
sg18
I0
sg19
I400000
sg20
I63014
sg21
F0.08
sg22
I0
sg23
F0.0
sg24
I145796
sg25
I239671
sg26
I827696
sg27
I0
ssS'HAYSLETT RODERICK J'
p385
(dp386
g3
I2649
sg4
I0
sg5
I0
sg6
I346663
sg7
I00
sg8
I0
sg9
S'rod.hayslett@enron.com'
p387
sg11
I35
sg12
I0
sg13
I0
sg14
I571
sg15
I0
sg16
I1061
sg17
I0
sg18
I0
sg19
I0
sg20
I346663
sg21
F346663.0
sg22
I38
sg23
F0.17
sg24
I346663
sg25
I0
sg26
I0
sg27
I0
ssS'FUGH JOHN L'
p388
(dp389
g3
I0
sg4
I50591
sg5
I0
sg6
I226969
sg7
I00
sg8
I0
sg9
I0
sg11
I0
sg12
I0
sg13
I0
sg14
I0
sg15
I0
sg16
I0
sg17
I0
sg18
I0
sg19
I0
sg20
I176378
sg21
F3.49
sg22
I0
sg23
F0.0
sg24
I0
sg25
I0
sg26
I50591
sg27
I176378
ssS'FALLON JAMES B'
p390
(dp391
g3
I1755
sg4
I0
sg5
I95924
sg6
I6008739
sg7
I00
sg8
I374347
sg9
S'jim.fallon@enron.com'
p392
sg11
I42
sg12
I0
sg13
I0
sg14
I1604
sg15
I0
sg16
I75
sg17
I401481
sg18
I0
sg19
I2500000
sg20
I2332399
sg21
F0.63
sg22
I37
sg23
F0.92
sg24
I1392142
sg25
I304588
sg26
I3676340
sg27
I940257
ssS'KOENIG MARK E'
p393
(dp394
g3
I2374
sg4
I0
sg5
I127017
sg6
I3507476
sg7
I01
sg8
I300000
sg9
S'mark.koenig@enron.com'
p395
sg11
I53
sg12
I0
sg13
I0
sg14
I2271
sg15
I0
sg16
I61
sg17
I150458
sg18
I0
sg19
I700000
sg20
I1920055
sg21
F1.21
sg22
I15
sg23
F0.96
sg24
I1248318
sg25
I309946
sg26
I1587421
sg27
I671737
ssS'SAVAGE FRANK'
p396
(dp397
g3
I0
sg4
I0
sg5
I0
sg6
I3750
sg7
I00
sg8
I0
sg9
I0
sg11
I0
sg12
I-121284
sg13
I0
sg14
I0
sg15
I0
sg16
I0
sg17
I0
sg18
I125034
sg19
I0
sg20
I0
sg21
F0.0
sg22
I0
sg23
F0.0
sg24
I0
sg25
I0
sg26
I3750
sg27
I0
ssS'IZZO LAWRENCE L'
p398
(dp399
g3
I496
sg4
I0
sg5
I28093
sg6
I7799576
sg7
I00
sg8
I312500
sg9
S'larry.izzo@enron.com'
p400
sg11
I28
sg12
I0
sg13
I0
sg14
I437
sg15
I0
sg16
I19
sg17
I1553729
sg18
I0
sg19
I0
sg20
I5819980
sg21
F2.94
sg22
I5
sg23
F0.91
sg24
I3654808
sg25
I85274
sg26
I1979596
sg27
I2165172
ssS'TILNEY ELIZABETH A'
p401
(dp402
g3
I460
sg4
I0
sg5
I0
sg6
I1567435
sg7
I00
sg8
I275000
sg9
S'elizabeth.tilney@enron.com'
p403
sg11
I10
sg12
I-575000
sg13
I0
sg14
I379
sg15
I0
sg16
I19
sg17
I152055
sg18
I0
sg19
I300000
sg20
I1168042
sg21
F2.92
sg22
I11
sg23
F0.83
sg24
I576792
sg25
I247338
sg26
I399393
sg27
I591250
ssS'MARTIN AMANDA K'
p404
(dp405
g3
I1522
sg4
I85430
sg5
I8211
sg6
I10477322
sg7
I00
sg8
I5145434
sg9
S'a..martin@enron.com'
p406
sg11
I8
sg12
I0
sg13
I0
sg14
I477
sg15
I0
sg16
I230
sg17
I2818454
sg18
I0
sg19
I0
sg20
I2070306
sg21
F0.25
sg22
I0
sg23
F0.28
sg24
I0
sg25
I349487
sg26
I8407016
sg27
I2070306
ssS'BUY RICHARD B'
p407
(dp408
g3
I3523
sg4
I649584
sg5
I0
sg6
I5800172
sg7
I00
sg8
I769862
sg9
S'rick.buy@enron.com'
p409
sg11
I156
sg12
I-694862
sg13
I0
sg14
I2333
sg15
I0
sg16
I1053
sg17
I400572
sg18
I0
sg19
I900000
sg20
I3444470
sg21
F1.46
sg22
I71
sg23
F0.56
sg24
I901657
sg25
I330546
sg26
I2355702
sg27
I2542813
ssS'GRAMM WENDY L'
p410
(dp411
g3
I0
sg4
I0
sg5
I0
sg6
I119292
sg7
I00
sg8
I0
sg9
I0
sg11
I0
sg12
I0
sg13
I0
sg14
I0
sg15
I0
sg16
I0
sg17
I0
sg18
I119292
sg19
I0
sg20
I0
sg21
F0.0
sg22
I0
sg23
F0.0
sg24
I0
sg25
I0
sg26
I119292
sg27
I0
ssS'CAUSEY RICHARD A'
p412
(dp413
g3
I1892
sg4
I0
sg5
I30674
sg6
I4370821
sg7
I01
sg8
I350000
sg9
S'richard.causey@enron.com'
p414
sg11
I58
sg12
I-235000
sg13
I0
sg14
I1585
sg15
I0
sg16
I49
sg17
I307895
sg18
I0
sg19
I1000000
sg20
I2502063
sg21
F1.34
sg22
I12
sg23
F0.85
sg24
I2502063
sg25
I415189
sg26
I1868758
sg27
I0
ssS'TAYLOR MITCHELL S'
p415
(dp416
g3
I533
sg4
I227449
sg5
I0
sg6
I4837711
sg7
I00
sg8
I0
sg9
S'mitchell.taylor@enron.com'
p417
sg11
I0
sg12
I0
sg13
I0
sg14
I300
sg15
I0
sg16
I29
sg17
I0
sg18
I0
sg19
I600000
sg20
I3745048
sg21
F3.43
sg22
I0
sg23
F0.53
sg24
I563798
sg25
I265214
sg26
I1092663
sg27
I3181250
ssS'DONAHUE JR JEFFREY M'
p418
(dp419
g3
I865
sg4
I0
sg5
I96268
sg6
I1956748
sg7
I00
sg8
I0
sg9
S'jeff.donahue@enron.com'
p420
sg11
I188
sg12
I-300000
sg13
I0
sg14
I772
sg15
I0
sg16
I22
sg17
I891
sg18
I0
sg19
I800000
sg20
I1080988
sg21
F1.23
sg22
I11
sg23
F1.09
sg24
I315068
sg25
I278601
sg26
I875760
sg27
I765920
ssS'GLISAN JR BEN F'
p421
(dp422
g3
I873
sg4
I0
sg5
I125978
sg6
I2050830
sg7
I01
sg8
I71023
sg9
S'ben.glisan@enron.com'
p423
sg11
I52
sg12
I0
sg13
I0
sg14
I874
sg15
I0
sg16
I16
sg17
I200308
sg18
I0
sg19
I600000
sg20
I778546
sg21
F0.61
sg22
I6
sg23
F1.05
sg24
I393818
sg25
I274975
sg26
I1272284
sg27
I384728
ss.